target datalayout = "e-m:e-p270:32:32-p271:32:32-p272:64:64-i64:64-i128:128-f80:128-n8:16:32:64-S128"
target triple = "x86_64-pc-linux-gnu"

%struct.JNINativeInterface_ = type { ptr, ptr, ptr, ptr, ptr, ptr, ptr, ptr, ptr, ptr, ptr, ptr, ptr, ptr, ptr, ptr, ptr, ptr, ptr, ptr, ptr, ptr, ptr, ptr, ptr, ptr, ptr, ptr, ptr, ptr, ptr, ptr, ptr, ptr, ptr, ptr, ptr, ptr, ptr, ptr, ptr, ptr, ptr, ptr, ptr, ptr, ptr, ptr, ptr, ptr, ptr, ptr, ptr, ptr, ptr, ptr, ptr, ptr, ptr, ptr, ptr, ptr, ptr, ptr, ptr, ptr, ptr, ptr, ptr, ptr, ptr, ptr, ptr, ptr, ptr, ptr, ptr, ptr, ptr, ptr, ptr, ptr, ptr, ptr, ptr, ptr, ptr, ptr, ptr, ptr, ptr, ptr, ptr, ptr, ptr, ptr, ptr, ptr, ptr, ptr, ptr, ptr, ptr, ptr, ptr, ptr, ptr, ptr, ptr, ptr, ptr, ptr, ptr, ptr, ptr, ptr, ptr, ptr, ptr, ptr, ptr, ptr, ptr, ptr, ptr, ptr, ptr, ptr, ptr, ptr, ptr, ptr, ptr, ptr, ptr, ptr, ptr, ptr, ptr, ptr, ptr, ptr, ptr, ptr, ptr, ptr, ptr, ptr, ptr, ptr, ptr, ptr, ptr, ptr, ptr, ptr, ptr, ptr, ptr, ptr, ptr, ptr, ptr, ptr, ptr, ptr, ptr, ptr, ptr, ptr, ptr, ptr, ptr, ptr, ptr, ptr, ptr, ptr, ptr, ptr, ptr, ptr, ptr, ptr, ptr, ptr, ptr, ptr, ptr, ptr, ptr, ptr, ptr, ptr, ptr, ptr, ptr, ptr, ptr, ptr, ptr, ptr, ptr, ptr, ptr, ptr, ptr, ptr, ptr, ptr, ptr, ptr, ptr, ptr, ptr, ptr, ptr, ptr, ptr, ptr, ptr, ptr, ptr, ptr, ptr, ptr, ptr, ptr, ptr, ptr, ptr, ptr, ptr, ptr, ptr }
%struct.CK_MECHANISM = type { i64, ptr, i64 }
%struct.CK_TLS_PRF_PARAMS = type { ptr, i64, ptr, i64, ptr, ptr }

@.str.1 = private unnamed_addr constant [41 x i8] c"sun/security/pkcs11/wrapper/CK_MECHANISM\00", align 1
@.str.2 = private unnamed_addr constant [10 x i8] c"mechanism\00", align 1
@.str.3 = private unnamed_addr constant [2 x i8] c"J\00", align 1
@.str.4 = private unnamed_addr constant [11 x i8] c"pParameter\00", align 1
@.str.5 = private unnamed_addr constant [19 x i8] c"Ljava/lang/Object;\00", align 1
@.str.6 = private unnamed_addr constant [46 x i8] c"sun/security/pkcs11/wrapper/CK_TLS_PRF_PARAMS\00", align 1
@.str.7 = private unnamed_addr constant [8 x i8] c"pOutput\00", align 1
@.str.8 = private unnamed_addr constant [3 x i8] c"[B\00", align 1

; Function Attrs: nounwind uwtable
define hidden void @copyBackTLSPrfParams(ptr noundef %0, ptr noundef %1, ptr noundef %2) #0 {
  %4 = alloca ptr, align 8
  %5 = alloca ptr, align 8
  %6 = alloca ptr, align 8
  %7 = alloca ptr, align 8
  %8 = alloca ptr, align 8
  %9 = alloca ptr, align 8
  %10 = alloca ptr, align 8
  %11 = alloca ptr, align 8
  %12 = alloca i64, align 8
  %13 = alloca i64, align 8
  %14 = alloca ptr, align 8
  %15 = alloca ptr, align 8
  %16 = alloca i32, align 4
  %17 = alloca ptr, align 8
  %18 = alloca i32, align 4
  store ptr %0, ptr %4, align 8
  store ptr %1, ptr %5, align 8
  store ptr %2, ptr %6, align 8
  %19 = load ptr, ptr %4, align 8
  %20 = load ptr, ptr %19, align 8
  %21 = getelementptr inbounds %struct.JNINativeInterface_, ptr %20, i32 0, i32 6
  %22 = load ptr, ptr %21, align 8
  %23 = load ptr, ptr %4, align 8
  %24 = call ptr %22(ptr noundef %23, ptr noundef @.str.1)
  store ptr %24, ptr %7, align 8
  %25 = load ptr, ptr %7, align 8
  %26 = icmp eq ptr %25, null
  br i1 %26, label %27, label %28

27:                                               ; preds = %3
  br label %160

28:                                               ; preds = %3
  %29 = load ptr, ptr %4, align 8
  %30 = load ptr, ptr %29, align 8
  %31 = getelementptr inbounds %struct.JNINativeInterface_, ptr %30, i32 0, i32 94
  %32 = load ptr, ptr %31, align 8
  %33 = load ptr, ptr %4, align 8
  %34 = load ptr, ptr %7, align 8
  %35 = call ptr %32(ptr noundef %33, ptr noundef %34, ptr noundef @.str.2, ptr noundef @.str.3)
  store ptr %35, ptr %11, align 8
  %36 = load ptr, ptr %11, align 8
  %37 = icmp eq ptr %36, null
  br i1 %37, label %38, label %39

38:                                               ; preds = %28
  br label %160

39:                                               ; preds = %28
  %40 = load ptr, ptr %4, align 8
  %41 = load ptr, ptr %40, align 8
  %42 = getelementptr inbounds %struct.JNINativeInterface_, ptr %41, i32 0, i32 101
  %43 = load ptr, ptr %42, align 8
  %44 = load ptr, ptr %4, align 8
  %45 = load ptr, ptr %6, align 8
  %46 = load ptr, ptr %11, align 8
  %47 = call i64 %43(ptr noundef %44, ptr noundef %45, ptr noundef %46)
  store i64 %47, ptr %13, align 8
  %48 = load i64, ptr %13, align 8
  store i64 %48, ptr %12, align 8
  %49 = load i64, ptr %12, align 8
  %50 = load ptr, ptr %5, align 8
  %51 = getelementptr inbounds %struct.CK_MECHANISM, ptr %50, i32 0, i32 0
  %52 = load i64, ptr %51, align 8
  %53 = icmp ne i64 %49, %52
  br i1 %53, label %54, label %55

54:                                               ; preds = %39
  br label %160

55:                                               ; preds = %39
  %56 = load ptr, ptr %5, align 8
  %57 = getelementptr inbounds %struct.CK_MECHANISM, ptr %56, i32 0, i32 1
  %58 = load ptr, ptr %57, align 8
  store ptr %58, ptr %9, align 8
  %59 = load ptr, ptr %9, align 8
  %60 = icmp ne ptr %59, null
  br i1 %60, label %61, label %160

61:                                               ; preds = %55
  %62 = load ptr, ptr %4, align 8
  %63 = load ptr, ptr %62, align 8
  %64 = getelementptr inbounds %struct.JNINativeInterface_, ptr %63, i32 0, i32 94
  %65 = load ptr, ptr %64, align 8
  %66 = load ptr, ptr %4, align 8
  %67 = load ptr, ptr %7, align 8
  %68 = call ptr %65(ptr noundef %66, ptr noundef %67, ptr noundef @.str.4, ptr noundef @.str.5)
  store ptr %68, ptr %11, align 8
  %69 = load ptr, ptr %11, align 8
  %70 = icmp eq ptr %69, null
  br i1 %70, label %71, label %72

71:                                               ; preds = %61
  br label %160

72:                                               ; preds = %61
  %73 = load ptr, ptr %4, align 8
  %74 = load ptr, ptr %73, align 8
  %75 = getelementptr inbounds %struct.JNINativeInterface_, ptr %74, i32 0, i32 95
  %76 = load ptr, ptr %75, align 8
  %77 = load ptr, ptr %4, align 8
  %78 = load ptr, ptr %6, align 8
  %79 = load ptr, ptr %11, align 8
  %80 = call ptr %76(ptr noundef %77, ptr noundef %78, ptr noundef %79)
  store ptr %80, ptr %10, align 8
  %81 = load ptr, ptr %4, align 8
  %82 = load ptr, ptr %81, align 8
  %83 = getelementptr inbounds %struct.JNINativeInterface_, ptr %82, i32 0, i32 6
  %84 = load ptr, ptr %83, align 8
  %85 = load ptr, ptr %4, align 8
  %86 = call ptr %84(ptr noundef %85, ptr noundef @.str.6)
  store ptr %86, ptr %8, align 8
  %87 = load ptr, ptr %8, align 8
  %88 = icmp eq ptr %87, null
  br i1 %88, label %89, label %90

89:                                               ; preds = %72
  br label %160

90:                                               ; preds = %72
  %91 = load ptr, ptr %4, align 8
  %92 = load ptr, ptr %91, align 8
  %93 = getelementptr inbounds %struct.JNINativeInterface_, ptr %92, i32 0, i32 94
  %94 = load ptr, ptr %93, align 8
  %95 = load ptr, ptr %4, align 8
  %96 = load ptr, ptr %8, align 8
  %97 = call ptr %94(ptr noundef %95, ptr noundef %96, ptr noundef @.str.7, ptr noundef @.str.8)
  store ptr %97, ptr %11, align 8
  %98 = load ptr, ptr %11, align 8
  %99 = icmp eq ptr %98, null
  br i1 %99, label %100, label %101

100:                                              ; preds = %90
  br label %160

101:                                              ; preds = %90
  %102 = load ptr, ptr %4, align 8
  %103 = load ptr, ptr %102, align 8
  %104 = getelementptr inbounds %struct.JNINativeInterface_, ptr %103, i32 0, i32 95
  %105 = load ptr, ptr %104, align 8
  %106 = load ptr, ptr %4, align 8
  %107 = load ptr, ptr %10, align 8
  %108 = load ptr, ptr %11, align 8
  %109 = call ptr %105(ptr noundef %106, ptr noundef %107, ptr noundef %108)
  store ptr %109, ptr %15, align 8
  %110 = load ptr, ptr %9, align 8
  %111 = getelementptr inbounds %struct.CK_TLS_PRF_PARAMS, ptr %110, i32 0, i32 4
  %112 = load ptr, ptr %111, align 8
  store ptr %112, ptr %14, align 8
  %113 = load ptr, ptr %15, align 8
  %114 = icmp ne ptr %113, null
  br i1 %114, label %115, label %159

115:                                              ; preds = %101
  %116 = load ptr, ptr %4, align 8
  %117 = load ptr, ptr %116, align 8
  %118 = getelementptr inbounds %struct.JNINativeInterface_, ptr %117, i32 0, i32 171
  %119 = load ptr, ptr %118, align 8
  %120 = load ptr, ptr %4, align 8
  %121 = load ptr, ptr %15, align 8
  %122 = call i32 %119(ptr noundef %120, ptr noundef %121)
  store i32 %122, ptr %16, align 4
  %123 = load ptr, ptr %4, align 8
  %124 = load ptr, ptr %123, align 8
  %125 = getelementptr inbounds %struct.JNINativeInterface_, ptr %124, i32 0, i32 184
  %126 = load ptr, ptr %125, align 8
  %127 = load ptr, ptr %4, align 8
  %128 = load ptr, ptr %15, align 8
  %129 = call ptr %126(ptr noundef %127, ptr noundef %128, ptr noundef null)
  store ptr %129, ptr %17, align 8
  %130 = load ptr, ptr %17, align 8
  %131 = icmp eq ptr %130, null
  br i1 %131, label %132, label %133

132:                                              ; preds = %115
  br label %160

133:                                              ; preds = %115
  store i32 0, ptr %18, align 4
  br label %134

134:                                              ; preds = %148, %133
  %135 = load i32, ptr %18, align 4
  %136 = load i32, ptr %16, align 4
  %137 = icmp slt i32 %135, %136
  br i1 %137, label %138, label %151

138:                                              ; preds = %134
  %139 = load ptr, ptr %14, align 8
  %140 = load i32, ptr %18, align 4
  %141 = sext i32 %140 to i64
  %142 = getelementptr inbounds i8, ptr %139, i64 %141
  %143 = load i8, ptr %142, align 1
  %144 = load ptr, ptr %17, align 8
  %145 = load i32, ptr %18, align 4
  %146 = sext i32 %145 to i64
  %147 = getelementptr inbounds i8, ptr %144, i64 %146
  store i8 %143, ptr %147, align 1
  br label %148

148:                                              ; preds = %138
  %149 = load i32, ptr %18, align 4
  %150 = add nsw i32 %149, 1
  store i32 %150, ptr %18, align 4
  br label %134, !llvm.loop !11

151:                                              ; preds = %134
  %152 = load ptr, ptr %4, align 8
  %153 = load ptr, ptr %152, align 8
  %154 = getelementptr inbounds %struct.JNINativeInterface_, ptr %153, i32 0, i32 192
  %155 = load ptr, ptr %154, align 8
  %156 = load ptr, ptr %4, align 8
  %157 = load ptr, ptr %15, align 8
  %158 = load ptr, ptr %17, align 8
  call void %155(ptr noundef %156, ptr noundef %157, ptr noundef %158, i32 noundef 0)
  br label %159

159:                                              ; preds = %151, %101
  br label %160

160:                                              ; preds = %159, %132, %100, %89, %71, %55, %54, %38, %27
  ret void
}