; Function Attrs: nounwind uwtable
define hidden void @copyBackTLSPrfParams(ptr noundef %0, ptr nocapture noundef readonly %1, ptr noundef %2) local_unnamed_addr #0 {
  %4 = load ptr, ptr %0, align 8
  %5 = getelementptr inbounds i8, ptr %4, i64 48
  %6 = load ptr, ptr %5, align 8
  %7 = tail call ptr %6(ptr noundef nonnull %0, ptr noundef nonnull @.str.1) #5
  %8 = icmp eq ptr %7, null
  br i1 %8, label %70, label %9

9:                                                ; preds = %3
  %10 = load ptr, ptr %0, align 8
  %11 = getelementptr inbounds i8, ptr %10, i64 752
  %12 = load ptr, ptr %11, align 8
  %13 = tail call ptr %12(ptr noundef nonnull %0, ptr noundef nonnull %7, ptr noundef nonnull @.str.2, ptr noundef nonnull @.str.3) #5
  %14 = icmp eq ptr %13, null
  br i1 %14, label %70, label %15

15:                                               ; preds = %9
  %16 = load ptr, ptr %0, align 8
  %17 = getelementptr inbounds i8, ptr %16, i64 808
  %18 = load ptr, ptr %17, align 8
  %19 = tail call i64 %18(ptr noundef nonnull %0, ptr noundef %2, ptr noundef nonnull %13) #5
  %20 = load i64, ptr %1, align 8
  %.not = icmp eq i64 %19, %20
  br i1 %.not, label %21, label %70

21:                                               ; preds = %15
  %22 = getelementptr inbounds i8, ptr %1, i64 8
  %23 = load ptr, ptr %22, align 8
  %.not62 = icmp eq ptr %23, null
  br i1 %.not62, label %70, label %24

24:                                               ; preds = %21
  %25 = load ptr, ptr %0, align 8
  %26 = getelementptr inbounds i8, ptr %25, i64 752
  %27 = load ptr, ptr %26, align 8
  %28 = tail call ptr %27(ptr noundef nonnull %0, ptr noundef nonnull %7, ptr noundef nonnull @.str.4, ptr noundef nonnull @.str.5) #5
  %29 = icmp eq ptr %28, null
  br i1 %29, label %70, label %30

30:                                               ; preds = %24
  %31 = load ptr, ptr %0, align 8
  %32 = getelementptr inbounds i8, ptr %31, i64 760
  %33 = load ptr, ptr %32, align 8
  %34 = tail call ptr %33(ptr noundef nonnull %0, ptr noundef %2, ptr noundef nonnull %28) #5
  %35 = load ptr, ptr %0, align 8
  %36 = getelementptr inbounds i8, ptr %35, i64 48
  %37 = load ptr, ptr %36, align 8
  %38 = tail call ptr %37(ptr noundef nonnull %0, ptr noundef nonnull @.str.6) #5
  %39 = icmp eq ptr %38, null
  br i1 %39, label %70, label %40

40:                                               ; preds = %30
  %41 = load ptr, ptr %0, align 8
  %42 = getelementptr inbounds i8, ptr %41, i64 752
  %43 = load ptr, ptr %42, align 8
  %44 = tail call ptr %43(ptr noundef nonnull %0, ptr noundef nonnull %38, ptr noundef nonnull @.str.7, ptr noundef nonnull @.str.8) #5
  %45 = icmp eq ptr %44, null
  br i1 %45, label %70, label %46

46:                                               ; preds = %40
  %47 = load ptr, ptr %0, align 8
  %48 = getelementptr inbounds i8, ptr %47, i64 760
  %49 = load ptr, ptr %48, align 8
  %50 = tail call ptr %49(ptr noundef nonnull %0, ptr noundef %34, ptr noundef nonnull %44) #5
  %51 = getelementptr inbounds i8, ptr %23, i64 32
  %52 = load ptr, ptr %51, align 8
  %.not63 = icmp eq ptr %50, null
  br i1 %.not63, label %70, label %53

53:                                               ; preds = %46
  %54 = load ptr, ptr %0, align 8
  %55 = getelementptr inbounds i8, ptr %54, i64 1368
  %56 = load ptr, ptr %55, align 8
  %57 = tail call i32 %56(ptr noundef nonnull %0, ptr noundef nonnull %50) #5
  %58 = load ptr, ptr %0, align 8
  %59 = getelementptr inbounds i8, ptr %58, i64 1472
  %60 = load ptr, ptr %59, align 8
  %61 = tail call ptr %60(ptr noundef nonnull %0, ptr noundef nonnull %50, ptr noundef null) #5
  %62 = icmp eq ptr %61, null
  br i1 %62, label %70, label %.preheader

.preheader:                                       ; preds = %53
  %63 = icmp sgt i32 %57, 0
  br i1 %63, label %.lr.ph.preheader, label %._crit_edge

.lr.ph.preheader:                                 ; preds = %.preheader
  %wide.trip.count = zext nneg i32 %57 to i64
  br label %.lr.ph

.lr.ph:                                           ; preds = %.lr.ph.preheader, %.lr.ph
  %indvars.iv = phi i64 [ 0, %.lr.ph.preheader ], [ %indvars.iv.next, %.lr.ph ]
  %64 = getelementptr inbounds i8, ptr %52, i64 %indvars.iv
  %65 = load i8, ptr %64, align 1
  %66 = getelementptr inbounds i8, ptr %61, i64 %indvars.iv
  store i8 %65, ptr %66, align 1
  %indvars.iv.next = add nuw nsw i64 %indvars.iv, 1
  %exitcond.not = icmp eq i64 %indvars.iv.next, %wide.trip.count
  br i1 %exitcond.not, label %._crit_edge, label %.lr.ph, !llvm.loop !11

._crit_edge:                                      ; preds = %.lr.ph, %.preheader
  %67 = load ptr, ptr %0, align 8
  %68 = getelementptr inbounds i8, ptr %67, i64 1536
  %69 = load ptr, ptr %68, align 8
  tail call void %69(ptr noundef nonnull %0, ptr noundef nonnull %50, ptr noundef nonnull %61, i32 noundef 0) #5
  br label %70

70:                                               ; preds = %46, %._crit_edge, %53, %40, %30, %24, %15, %9, %3, %21
  ret void
}